target datalayout = "e-m:e-p270:32:32-p271:32:32-p272:64:64-i64:64-i128:128-f80:128-n8:16:32:64-S128"
target triple = "x86_64-pc-linux-gnu"

%class.LogTagSet = type { ptr, i64, [5 x i32], [4 x i8], %class.LogOutputList, %class.LogDecorators, ptr }
%class.LogOutputList = type <{ [6 x ptr], i32, [4 x i8] }>
%class.LogDecorators = type { i32 }
%class.CgroupV1Controller = type { %class.CgroupController, ptr, ptr, i8, ptr }
%class.CgroupController = type { ptr }
%class.CgroupV1MemoryController = type <{ %class.CgroupMemoryController, %class.CgroupV1Controller, i8, [7 x i8] }>
%class.CgroupMemoryController = type { ptr }

@.str.41 = private unnamed_addr constant [28 x i8] c"/memory.kmem.usage_in_bytes\00", align 1
@.str.42 = private unnamed_addr constant [31 x i8] c"Kernel Memory Usage failed: %d\00", align 1
@.str.43 = private unnamed_addr constant [28 x i8] c"Kernel Memory Usage is: %lu\00", align 1
@_ZN16LogTagSetMappingILN6LogTag4typeE105ELS1_25ELS1_0ELS1_0ELS1_0ELS1_0EE7_tagsetE = linkonce_odr hidden global %class.LogTagSet zeroinitializer, comdat, align 8

; Function Attrs: mustprogress nounwind uwtable
define linkonce_odr hidden noundef zeroext i1 @_ZNK13LogOutputList8is_levelEN8LogLevel4typeE(ptr noundef nonnull align 8 dereferenceable(52) %0, i32 noundef %1) #1 comdat align 2 {
  %3 = alloca ptr, align 8
  %4 = alloca i32, align 4
  store ptr %0, ptr %3, align 8
  store i32 %1, ptr %4, align 4
  %5 = load ptr, ptr %3, align 8
  %6 = getelementptr inbounds %class.LogOutputList, ptr %5, i32 0, i32 0
  %7 = load i32, ptr %4, align 4
  %8 = zext i32 %7 to i64
  %9 = getelementptr inbounds [6 x ptr], ptr %6, i64 0, i64 %8
  %10 = load volatile ptr, ptr %9, align 8
  %11 = icmp ne ptr %10, null
  ret i1 %11
}

; Function Attrs: mustprogress nounwind uwtable
define linkonce_odr hidden noundef zeroext i1 @_ZNK9LogTagSet8is_levelEN8LogLevel4typeE(ptr noundef nonnull align 8 dereferenceable(112) %0, i32 noundef %1) #1 comdat align 2 {
  %3 = alloca ptr, align 8
  %4 = alloca i32, align 4
  store ptr %0, ptr %3, align 8
  store i32 %1, ptr %4, align 4
  %5 = load ptr, ptr %3, align 8
  %6 = getelementptr inbounds %class.LogTagSet, ptr %5, i32 0, i32 4
  %7 = load i32, ptr %4, align 4
  %8 = call noundef zeroext i1 @_ZNK13LogOutputList8is_levelEN8LogLevel4typeE(ptr noundef nonnull align 8 dereferenceable(52) %6, i32 noundef %7)
  ret i1 %8
}

; Function Attrs: mustprogress nounwind uwtable
define linkonce_odr hidden noundef nonnull align 8 dereferenceable(112) ptr @_ZN16LogTagSetMappingILN6LogTag4typeE105ELS1_25ELS1_0ELS1_0ELS1_0ELS1_0EE6tagsetEv() #1 comdat align 2 {
  ret ptr @_ZN16LogTagSetMappingILN6LogTag4typeE105ELS1_25ELS1_0ELS1_0ELS1_0ELS1_0EE7_tagsetE
}

; Function Attrs: mustprogress nounwind uwtable
define linkonce_odr hidden noundef zeroext i1 @_ZN7LogImplILN6LogTag4typeE105ELS1_25ELS1_0ELS1_0ELS1_0ELS1_0EE8is_levelEN8LogLevel4typeE(i32 noundef %0) #1 comdat align 2 {
  %2 = alloca i32, align 4
  store i32 %0, ptr %2, align 4
  %3 = call noundef nonnull align 8 dereferenceable(112) ptr @_ZN16LogTagSetMappingILN6LogTag4typeE105ELS1_25ELS1_0ELS1_0ELS1_0ELS1_0EE6tagsetEv()
  %4 = load i32, ptr %2, align 4
  %5 = call noundef zeroext i1 @_ZNK9LogTagSet8is_levelEN8LogLevel4typeE(ptr noundef nonnull align 8 dereferenceable(112) %3, i32 noundef %4)
  ret i1 %5
}

; Function Attrs: mustprogress nounwind uwtable
define linkonce_odr hidden noundef ptr @_ZN24CgroupV1MemoryController6readerEv(ptr noundef nonnull align 8 dereferenceable(56) %0) #1 comdat align 2 {
  %2 = alloca ptr, align 8
  store ptr %0, ptr %2, align 8
  %3 = load ptr, ptr %2, align 8
  %4 = getelementptr inbounds %class.CgroupV1MemoryController, ptr %3, i32 0, i32 1
  ret ptr %4
}

; Function Attrs: mustprogress nounwind uwtable
define hidden noundef i64 @_ZN24CgroupV1MemoryController28kernel_memory_usage_in_bytesEv(ptr noundef nonnull align 8 dereferenceable(56) %0) #1 align 2 {
  %2 = alloca i64, align 8
  %3 = alloca ptr, align 8
  %4 = alloca i64, align 8
  %5 = alloca i8, align 1
  store ptr %0, ptr %3, align 8
  %6 = load ptr, ptr %3, align 8
  %7 = call noundef ptr @_ZN24CgroupV1MemoryController6readerEv(ptr noundef nonnull align 8 dereferenceable(56) %6)
  %8 = call noundef zeroext i1 @_ZN16CgroupController11read_numberEPKcPm(ptr noundef nonnull align 8 dereferenceable(8) %7, ptr noundef @.str.41, ptr noundef %4)
  %9 = zext i1 %8 to i8
  store i8 %9, ptr %5, align 1
  %10 = load i8, ptr %5, align 1
  %11 = trunc i8 %10 to i1
  br i1 %11, label %17, label %12

12:                                               ; preds = %1
  %13 = call noundef zeroext i1 @_ZN7LogImplILN6LogTag4typeE105ELS1_25ELS1_0ELS1_0ELS1_0ELS1_0EE8is_levelEN8LogLevel4typeE(i32 noundef 1)
  br i1 %13, label %15, label %14

14:                                               ; preds = %12
  br label %16

15:                                               ; preds = %12
  call void (ptr, ...) @_ZN7LogImplILN6LogTag4typeE105ELS1_25ELS1_0ELS1_0ELS1_0ELS1_0EE5writeILN8LogLevel4typeE1EEEvPKcz(ptr noundef @.str.42, i32 noundef -2)
  br label %16

16:                                               ; preds = %15, %14
  store i64 -2, ptr %2, align 8
  br label %24

17:                                               ; preds = %1
  %18 = call noundef zeroext i1 @_ZN7LogImplILN6LogTag4typeE105ELS1_25ELS1_0ELS1_0ELS1_0ELS1_0EE8is_levelEN8LogLevel4typeE(i32 noundef 1)
  br i1 %18, label %20, label %19

19:                                               ; preds = %17
  br label %22

20:                                               ; preds = %17
  %21 = load i64, ptr %4, align 8
  call void (ptr, ...) @_ZN7LogImplILN6LogTag4typeE105ELS1_25ELS1_0ELS1_0ELS1_0ELS1_0EE5writeILN8LogLevel4typeE1EEEvPKcz(ptr noundef @.str.43, i64 noundef %21)
  br label %22

22:                                               ; preds = %20, %19
  %23 = load i64, ptr %4, align 8
  store i64 %23, ptr %2, align 8
  br label %24

24:                                               ; preds = %22, %16
  %25 = load i64, ptr %2, align 8
  ret i64 %25
}